; Function Attrs: mustprogress uwtable
define dso_local void @_ZNK21btUniformScalingShape32getPreferredPenetrationDirectionEiR9btVector3(ptr nocapture noundef nonnull readonly align 8 dereferenceable(44) %this, i32 noundef %index, ptr noundef nonnull align 4 dereferenceable(16) %penetrationVector) unnamed_addr #0 align 2 {
entry:
  %m_childConvexShape = getelementptr inbounds i8, ptr %this, i64 32
  %0 = load ptr, ptr %m_childConvexShape, align 8
  %vtable = load ptr, ptr %0, align 8
  %vfn = getelementptr inbounds i8, ptr %vtable, i64 176
  %1 = load ptr, ptr %vfn, align 8
  tail call void %1(ptr noundef nonnull align 8 dereferenceable(32) %0, i32 noundef %index, ptr noundef nonnull align 4 dereferenceable(16) %penetrationVector)
  ret void
}